; Function Attrs: mustprogress nofree norecurse nosync nounwind willreturn memory(read, inaccessiblemem: none) uwtable
define hidden noundef zeroext i1 @_ZN17PSParallelCompact14IsAliveClosure11do_object_bEP7oopDesc(ptr nocapture nonnull readnone align 8 %0, ptr noundef %1) unnamed_addr #11 align 2 {
  %3 = load ptr, ptr @_ZN17PSParallelCompact12_mark_bitmapE, align 8
  %4 = ptrtoint ptr %1 to i64
  %5 = ptrtoint ptr %3 to i64
  %6 = sub i64 %4, %5
  %7 = lshr i64 %6, 3
  %8 = load i32, ptr @LogMinObjAlignment, align 4
  %9 = zext nneg i32 %8 to i64
  %10 = lshr i64 %7, %9
  %11 = load ptr, ptr getelementptr inbounds (i8, ptr @_ZN17PSParallelCompact12_mark_bitmapE, i64 16), align 8
  %12 = lshr i64 %10, 6
  %13 = getelementptr inbounds i64, ptr %11, i64 %12
  %14 = load i64, ptr %13, align 8
  %15 = and i64 %10, 63
  %16 = shl nuw i64 1, %15
  %17 = and i64 %16, %14
  %18 = icmp ne i64 %17, 0
  ret i1 %18
}